target datalayout = "e-m:e-p270:32:32-p271:32:32-p272:64:64-i64:64-i128:128-f80:128-n8:16:32:64-S128"
target triple = "x86_64-pc-linux-gnu"

%"class.std::error_code" = type { i32, ptr }
%"class.fmt::v11::file" = type { i32 }

@_ZN12_GLOBAL__N_110dup2_countE = internal global i32 0, align 4

; Function Attrs: noinline noreturn nounwind uwtable
define linkonce_odr hidden void @__clang_call_terminate(ptr noundef %0) #2 comdat {
  %2 = call ptr @__cxa_begin_catch(ptr %0) #16
  call void @_ZSt9terminatev() #21
  unreachable
}

; Function Attrs: mustprogress nounwind uwtable
define linkonce_odr hidden void @_ZNSt10error_codeC2EiRKNSt3_V214error_categoryE(ptr noundef nonnull align 8 dereferenceable(16) %0, i32 noundef %1, ptr noundef nonnull align 8 dereferenceable(8) %2) unnamed_addr #0 comdat align 2 {
  %4 = alloca ptr, align 8
  %5 = alloca i32, align 4
  %6 = alloca ptr, align 8
  store ptr %0, ptr %4, align 8, !tbaa !75
  store i32 %1, ptr %5, align 4, !tbaa !12
  store ptr %2, ptr %6, align 8, !tbaa !79
  %7 = load ptr, ptr %4, align 8
  %8 = getelementptr inbounds nuw %"class.std::error_code", ptr %7, i32 0, i32 0
  %9 = load i32, ptr %5, align 4, !tbaa !12
  store i32 %9, ptr %8, align 8, !tbaa !81
  %10 = getelementptr inbounds nuw %"class.std::error_code", ptr %7, i32 0, i32 1
  %11 = load ptr, ptr %6, align 8, !tbaa !79
  store ptr %11, ptr %10, align 8, !tbaa !83
  ret void
}

; Function Attrs: mustprogress nounwind uwtable
define hidden noundef i32 @_ZN4test4dup2Eii(i32 noundef %0, i32 noundef %1) #0 {
  %3 = alloca i32, align 4
  %4 = alloca i32, align 4
  %5 = alloca i32, align 4
  store i32 %0, ptr %4, align 4, !tbaa !12
  store i32 %1, ptr %5, align 4, !tbaa !12
  %6 = load i32, ptr @_ZN12_GLOBAL__N_110dup2_countE, align 4, !tbaa !12
  %7 = icmp ne i32 %6, 0
  br i1 %7, label %8, label %15

8:                                                ; preds = %2
  %9 = load i32, ptr @_ZN12_GLOBAL__N_110dup2_countE, align 4, !tbaa !12
  %10 = add nsw i32 %9, 1
  store i32 %10, ptr @_ZN12_GLOBAL__N_110dup2_countE, align 4, !tbaa !12
  %11 = icmp ne i32 %9, 3
  br i1 %11, label %12, label %14

12:                                               ; preds = %8
  %13 = call ptr @__errno_location() #20
  store i32 4, ptr %13, align 4, !tbaa !12
  store i32 -1, ptr %3, align 4
  br label %19

14:                                               ; preds = %8
  br label %15

15:                                               ; preds = %14, %2
  %16 = load i32, ptr %4, align 4, !tbaa !12
  %17 = load i32, ptr %5, align 4, !tbaa !12
  %18 = call i32 @dup2(i32 noundef %16, i32 noundef %17) #16
  store i32 %18, ptr %3, align 4
  br label %19

19:                                               ; preds = %15, %12
  %20 = load i32, ptr %3, align 4
  ret i32 %20
}

; Function Attrs: mustprogress nounwind uwtable
define hidden void @_ZN3fmt3v114file4dup2EiRSt10error_code(ptr noundef nonnull align 4 dereferenceable(4) %0, i32 noundef %1, ptr noundef nonnull align 8 dereferenceable(16) %2) #0 align 2 personality ptr @__gxx_personality_v0 {
  %4 = alloca ptr, align 8
  %5 = alloca i32, align 4
  %6 = alloca ptr, align 8
  %7 = alloca i32, align 4
  %8 = alloca %"class.std::error_code", align 8
  store ptr %0, ptr %4, align 8, !tbaa !39
  store i32 %1, ptr %5, align 4, !tbaa !12
  store ptr %2, ptr %6, align 8, !tbaa !75
  %9 = load ptr, ptr %4, align 8
  call void @llvm.lifetime.start.p0(i64 4, ptr %7) #16
  store i32 0, ptr %7, align 4, !tbaa !12
  br label %10

10:                                               ; preds = %23, %3
  %11 = getelementptr inbounds nuw %"class.fmt::v11::file", ptr %9, i32 0, i32 0
  %12 = load i32, ptr %11, align 4, !tbaa !41
  %13 = load i32, ptr %5, align 4, !tbaa !12
  %14 = invoke noundef i32 @_ZN4test4dup2Eii(i32 noundef %12, i32 noundef %13)
          to label %15 unwind label %34

15:                                               ; preds = %10
  store i32 %14, ptr %7, align 4, !tbaa !12
  br label %16

16:                                               ; preds = %15
  %17 = load i32, ptr %7, align 4, !tbaa !12
  %18 = icmp eq i32 %17, -1
  br i1 %18, label %19, label %23

19:                                               ; preds = %16
  %20 = call ptr @__errno_location() #20
  %21 = load i32, ptr %20, align 4, !tbaa !12
  %22 = icmp eq i32 %21, 4
  br label %23

23:                                               ; preds = %19, %16
  %24 = phi i1 [ false, %16 ], [ %22, %19 ]
  br i1 %24, label %10, label %25, !llvm.loop !77

25:                                               ; preds = %23
  %26 = load i32, ptr %7, align 4, !tbaa !12
  %27 = icmp eq i32 %26, -1
  br i1 %27, label %28, label %33

28:                                               ; preds = %25
  call void @llvm.lifetime.start.p0(i64 16, ptr %8) #16
  %29 = call ptr @__errno_location() #20
  %30 = load i32, ptr %29, align 4, !tbaa !12
  %31 = call noundef nonnull align 8 dereferenceable(8) ptr @_ZNSt3_V216generic_categoryEv() #20
  call void @_ZNSt10error_codeC2EiRKNSt3_V214error_categoryE(ptr noundef nonnull align 8 dereferenceable(16) %8, i32 noundef %30, ptr noundef nonnull align 8 dereferenceable(8) %31) #16
  %32 = load ptr, ptr %6, align 8, !tbaa !75
  call void @llvm.memcpy.p0.p0.i64(ptr align 8 %32, ptr align 8 %8, i64 16, i1 false), !tbaa.struct !78
  call void @llvm.lifetime.end.p0(i64 16, ptr %8) #16
  br label %33

33:                                               ; preds = %28, %25
  call void @llvm.lifetime.end.p0(i64 4, ptr %7) #16
  ret void

34:                                               ; preds = %10
  %35 = landingpad { ptr, i32 }
          catch ptr null
  %36 = extractvalue { ptr, i32 } %35, 0
  call void @__clang_call_terminate(ptr %36) #21
  unreachable
}