; Function Attrs: mustprogress nounwind uwtable
define hidden void @_ZN3fmt3v114file4dup2EiRSt10error_code(ptr noundef nonnull readonly align 4 captures(none) dereferenceable(4) %0, i32 noundef %1, ptr noundef nonnull writeonly align 8 captures(none) dereferenceable(16) %2) local_unnamed_addr #0 align 2 personality ptr @__gxx_personality_v0 {
  br label %4

4:                                                ; preds = %12, %3
  %5 = load i32, ptr %0, align 4, !tbaa !24
  %6 = load i32, ptr @_ZN12_GLOBAL__N_110dup2_countE, align 4, !tbaa !10
  %.not.i = icmp eq i32 %6, 0
  br i1 %.not.i, label %_ZN4test4dup2Eii.exit, label %7

7:                                                ; preds = %4
  %8 = add nsw i32 %6, 1
  store i32 %8, ptr @_ZN12_GLOBAL__N_110dup2_countE, align 4, !tbaa !10
  %.not4.i = icmp eq i32 %6, 3
  br i1 %.not4.i, label %_ZN4test4dup2Eii.exit, label %_ZN4test4dup2Eii.exit.thread

_ZN4test4dup2Eii.exit.thread:                     ; preds = %7
  %9 = tail call ptr @__errno_location() #28
  store i32 4, ptr %9, align 4, !tbaa !10
  br label %12

_ZN4test4dup2Eii.exit:                            ; preds = %4, %7
  %10 = tail call i32 @dup2(i32 noundef %5, i32 noundef %1) #29
  %11 = icmp eq i32 %10, -1
  br i1 %11, label %_ZN4test4dup2Eii.exit._crit_edge, label %.critedge4

_ZN4test4dup2Eii.exit._crit_edge:                 ; preds = %_ZN4test4dup2Eii.exit
  %.pre = tail call ptr @__errno_location() #28
  %.pr = load i32, ptr %.pre, align 4, !tbaa !10
  br label %12

12:                                               ; preds = %_ZN4test4dup2Eii.exit._crit_edge, %_ZN4test4dup2Eii.exit.thread
  %13 = phi i32 [ %.pr, %_ZN4test4dup2Eii.exit._crit_edge ], [ 4, %_ZN4test4dup2Eii.exit.thread ]
  %14 = icmp eq i32 %13, 4
  br i1 %14, label %4, label %.critedge, !llvm.loop !55

.critedge:                                        ; preds = %12
  %15 = tail call noundef nonnull align 8 dereferenceable(8) ptr @_ZNSt3_V216generic_categoryEv() #28
  store i32 %13, ptr %2, align 8, !tbaa !10
  %.sroa.45.0..sroa_idx = getelementptr inbounds nuw i8, ptr %2, i64 8
  store ptr %15, ptr %.sroa.45.0..sroa_idx, align 8, !tbaa !56
  br label %.critedge4

.critedge4:                                       ; preds = %_ZN4test4dup2Eii.exit, %.critedge
  ret void
}